target datalayout = "e-m:e-p270:32:32-p271:32:32-p272:64:64-i64:64-i128:128-f80:128-n8:16:32:64-S128"
target triple = "x86_64-pc-linux-gnu"

%struct.AVFormatContext = type { ptr, ptr, ptr, ptr, ptr, i32, i32, ptr, i32, ptr, i32, ptr, ptr, i64, i64, i64, i32, i32, i32, i64, i64, ptr, i32, i32, ptr, i32, i32, i32, i32, ptr, i64, i32, i32, %struct.AVIOInterruptCB, i32, i32, i32, i32, i64, i32, i32, i32, i32, i32, i32, i32, i32, i32, i32, i32, i32, i64, i32, i32, i32, i32, i32, ptr, ptr, ptr, ptr, i32, ptr, ptr, ptr, ptr, i32, ptr, ptr, i64, ptr, ptr, ptr, i64 }
%struct.AVIOInterruptCB = type { ptr, ptr }

@klv_fill_key = internal constant [16 x i8] c"\06\0E+4\01\01\01\02\03\01\02\10\01\00\00\00", align 16

; Function Attrs: nounwind uwtable
define internal void @klv_encode_ber4_length(ptr noundef %0, i32 noundef %1) #0 {
  %3 = alloca ptr, align 8
  %4 = alloca i32, align 4
  store ptr %0, ptr %3, align 8, !tbaa !31
  store i32 %1, ptr %4, align 4, !tbaa !57
  %5 = load ptr, ptr %3, align 8, !tbaa !31
  call void @avio_w8(ptr noundef %5, i32 noundef 131)
  %6 = load ptr, ptr %3, align 8, !tbaa !31
  %7 = load i32, ptr %4, align 4, !tbaa !57
  call void @avio_wb24(ptr noundef %6, i32 noundef %7)
  ret void
}

; Function Attrs: nounwind uwtable
define internal i32 @klv_fill_size(i64 noundef %0) #0 {
  %2 = alloca i32, align 4
  %3 = alloca i64, align 8
  %4 = alloca i32, align 4
  %5 = alloca i32, align 4
  store i64 %0, ptr %3, align 8, !tbaa !80
  call void @llvm.lifetime.start.p0(i64 4, ptr %4) #13
  %6 = load i64, ptr %3, align 8, !tbaa !80
  %7 = and i64 %6, 511
  %8 = sub i64 512, %7
  %9 = trunc i64 %8 to i32
  store i32 %9, ptr %4, align 4, !tbaa !57
  %10 = load i32, ptr %4, align 4, !tbaa !57
  %11 = icmp ult i32 %10, 20
  br i1 %11, label %12, label %15

12:                                               ; preds = %1
  %13 = load i32, ptr %4, align 4, !tbaa !57
  %14 = add i32 %13, 512
  store i32 %14, ptr %2, align 4
  store i32 1, ptr %5, align 4
  br label %18

15:                                               ; preds = %1
  %16 = load i32, ptr %4, align 4, !tbaa !57
  %17 = and i32 %16, 511
  store i32 %17, ptr %2, align 4
  store i32 1, ptr %5, align 4
  br label %18

18:                                               ; preds = %15, %12
  call void @llvm.lifetime.end.p0(i64 4, ptr %4) #13
  %19 = load i32, ptr %2, align 4
  ret i32 %19
}

; Function Attrs: alwaysinline nounwind uwtable
define internal i64 @avio_tell(ptr noundef %0) #8 {
  %2 = alloca ptr, align 8
  store ptr %0, ptr %2, align 8, !tbaa !31
  %3 = load ptr, ptr %2, align 8, !tbaa !31
  %4 = call i64 @avio_seek(ptr noundef %3, i64 noundef 0, i32 noundef 1)
  ret i64 %4
}

; Function Attrs: nounwind uwtable
define internal void @mxf_write_klv_fill(ptr noundef %0) #0 {
  %2 = alloca ptr, align 8
  %3 = alloca i32, align 4
  store ptr %0, ptr %2, align 8, !tbaa !4
  call void @llvm.lifetime.start.p0(i64 4, ptr %3) #13
  %4 = load ptr, ptr %2, align 8, !tbaa !4
  %5 = getelementptr inbounds nuw %struct.AVFormatContext, ptr %4, i32 0, i32 4
  %6 = load ptr, ptr %5, align 8, !tbaa !30
  %7 = call i64 @avio_tell(ptr noundef %6)
  %8 = call i32 @klv_fill_size(i64 noundef %7)
  store i32 %8, ptr %3, align 4, !tbaa !57
  %9 = load i32, ptr %3, align 4, !tbaa !57
  %10 = icmp ne i32 %9, 0
  br i1 %10, label %11, label %26

11:                                               ; preds = %1
  %12 = load ptr, ptr %2, align 8, !tbaa !4
  %13 = getelementptr inbounds nuw %struct.AVFormatContext, ptr %12, i32 0, i32 4
  %14 = load ptr, ptr %13, align 8, !tbaa !30
  call void @avio_write(ptr noundef %14, ptr noundef @klv_fill_key, i32 noundef 16)
  %15 = load i32, ptr %3, align 4, !tbaa !57
  %16 = sub i32 %15, 20
  store i32 %16, ptr %3, align 4, !tbaa !57
  %17 = load ptr, ptr %2, align 8, !tbaa !4
  %18 = getelementptr inbounds nuw %struct.AVFormatContext, ptr %17, i32 0, i32 4
  %19 = load ptr, ptr %18, align 8, !tbaa !30
  %20 = load i32, ptr %3, align 4, !tbaa !57
  call void @klv_encode_ber4_length(ptr noundef %19, i32 noundef %20)
  %21 = load ptr, ptr %2, align 8, !tbaa !4
  %22 = getelementptr inbounds nuw %struct.AVFormatContext, ptr %21, i32 0, i32 4
  %23 = load ptr, ptr %22, align 8, !tbaa !30
  %24 = load i32, ptr %3, align 4, !tbaa !57
  %25 = zext i32 %24 to i64
  call void @ffio_fill(ptr noundef %23, i32 noundef 0, i64 noundef %25)
  br label %26

26:                                               ; preds = %11, %1
  call void @llvm.lifetime.end.p0(i64 4, ptr %3) #13
  ret void
}