; Function Attrs: nounwind uwtable
define internal fastcc void @mxf_write_klv_fill(ptr noundef readonly captures(none) %0) unnamed_addr #0 {
  %2 = getelementptr inbounds nuw i8, ptr %0, i64 32
  %3 = load ptr, ptr %2, align 8, !tbaa !24
  %4 = tail call i64 @avio_seek(ptr noundef %3, i64 noundef 0, i32 noundef 1) #14
  %5 = trunc i64 %4 to i32
  %6 = and i32 %5, 511
  %7 = icmp samesign ugt i32 %6, 492
  %8 = sub nuw nsw i32 1024, %6
  %9 = sub i32 0, %5
  %10 = and i32 %9, 511
  %.0.i = select i1 %7, i32 %8, i32 %10
  %.not = icmp eq i32 %.0.i, 0
  br i1 %.not, label %17, label %11

11:                                               ; preds = %1
  %12 = load ptr, ptr %2, align 8, !tbaa !24
  tail call void @avio_write(ptr noundef %12, ptr noundef nonnull @klv_fill_key, i32 noundef 16) #14
  %13 = add nsw i32 %.0.i, -20
  %14 = load ptr, ptr %2, align 8, !tbaa !24
  tail call void @avio_w8(ptr noundef %14, i32 noundef 131) #14
  tail call void @avio_wb24(ptr noundef %14, i32 noundef %13) #14
  %15 = load ptr, ptr %2, align 8, !tbaa !24
  %16 = zext i32 %13 to i64
  tail call void @ffio_fill(ptr noundef %15, i32 noundef 0, i64 noundef %16) #14
  br label %17

17:                                               ; preds = %11, %1
  ret void
}